target datalayout = "e-m:e-p270:32:32-p271:32:32-p272:64:64-i64:64-i128:128-f80:128-n8:16:32:64-S128"
target triple = "x86_64-pc-linux-gnu"

%struct.AVChannelLayout = type { i32, i32, %union.anon.1, ptr }
%union.anon.1 = type { i64 }
%struct.AVRational = type { i32, i32 }
%struct.AVFrame = type { [8 x ptr], [8 x i32], ptr, i32, i32, i32, i32, i32, %struct.AVRational, i64, i64, %struct.AVRational, i32, ptr, i32, i32, [8 x ptr], ptr, i32, ptr, i32, i32, i32, i32, i32, i32, i32, i64, ptr, i32, ptr, ptr, i64, i64, i64, i64, ptr, %struct.AVChannelLayout, i64 }

; Function Attrs: nounwind uwtable
define internal i32 @is_same1(ptr noundef %0, i32 noundef %1, i32 noundef %2, i32 noundef %3, i32 noundef %4, i32 noundef %5, i32 noundef %6) #1 {
  %8 = alloca i32, align 4
  %9 = alloca ptr, align 8
  %10 = alloca i32, align 4
  %11 = alloca i32, align 4
  %12 = alloca i32, align 4
  %13 = alloca i32, align 4
  %14 = alloca i32, align 4
  %15 = alloca i32, align 4
  %16 = alloca i32, align 4
  %17 = alloca i32, align 4
  store ptr %0, ptr %9, align 8, !tbaa !26
  store i32 %1, ptr %10, align 4, !tbaa !36
  store i32 %2, ptr %11, align 4, !tbaa !36
  store i32 %3, ptr %12, align 4, !tbaa !36
  store i32 %4, ptr %13, align 4, !tbaa !36
  store i32 %5, ptr %14, align 4, !tbaa !36
  store i32 %6, ptr %15, align 4, !tbaa !36
  call void @llvm.lifetime.start.p0(i64 4, ptr %16) #4
  %18 = load ptr, ptr %9, align 8, !tbaa !26
  %19 = getelementptr inbounds nuw %struct.AVFrame, ptr %18, i32 0, i32 0
  %20 = getelementptr inbounds [8 x ptr], ptr %19, i64 0, i64 0
  %21 = load ptr, ptr %20, align 8, !tbaa !70
  %22 = load i32, ptr %11, align 4, !tbaa !36
  %23 = load ptr, ptr %9, align 8, !tbaa !26
  %24 = getelementptr inbounds nuw %struct.AVFrame, ptr %23, i32 0, i32 1
  %25 = getelementptr inbounds [8 x i32], ptr %24, i64 0, i64 0
  %26 = load i32, ptr %25, align 8, !tbaa !36
  %27 = mul nsw i32 %22, %26
  %28 = load i32, ptr %10, align 4, !tbaa !36
  %29 = add nsw i32 %27, %28
  %30 = sext i32 %29 to i64
  %31 = getelementptr inbounds i8, ptr %21, i64 %30
  %32 = load i8, ptr %31, align 1, !tbaa !71
  %33 = zext i8 %32 to i32
  store i32 %33, ptr %16, align 4, !tbaa !36
  %34 = load i32, ptr %12, align 4, !tbaa !36
  %35 = load i32, ptr %16, align 4, !tbaa !36
  %36 = icmp eq i32 %34, %35
  br i1 %36, label %37, label %38

37:                                               ; preds = %7
  store i32 1, ptr %8, align 4
  store i32 1, ptr %17, align 4
  br label %39

38:                                               ; preds = %7
  store i32 0, ptr %8, align 4
  store i32 1, ptr %17, align 4
  br label %39

39:                                               ; preds = %38, %37
  call void @llvm.lifetime.end.p0(i64 4, ptr %16) #4
  %40 = load i32, ptr %8, align 4
  ret i32 %40
}