; Function Attrs: mustprogress nofree norecurse nosync nounwind willreturn memory(read, inaccessiblemem: none) uwtable
define internal range(i32 0, 2) i32 @is_same1(ptr noundef readonly captures(none) %0, i32 noundef %1, i32 noundef %2, i32 noundef %3, i32 %4, i32 %5, i32 %6) #5 {
  %8 = load ptr, ptr %0, align 8, !tbaa !65
  %9 = getelementptr inbounds nuw i8, ptr %0, i64 64
  %10 = load i32, ptr %9, align 8, !tbaa !31
  %11 = mul nsw i32 %10, %2
  %12 = add nsw i32 %11, %1
  %13 = sext i32 %12 to i64
  %14 = getelementptr inbounds i8, ptr %8, i64 %13
  %15 = load i8, ptr %14, align 1, !tbaa !66
  %16 = zext i8 %15 to i32
  %17 = icmp eq i32 %3, %16
  %. = zext i1 %17 to i32
  ret i32 %.
}